; Function Attrs: mustprogress uwtable
define hidden void @_ZNK3smt7context18display_statisticsERSo(ptr noundef nonnull align 8 dereferenceable(10544) %0, ptr noundef nonnull align 8 dereferenceable(8) %1) local_unnamed_addr #4 align 2 personality ptr @__gxx_personality_v0 {
  %3 = alloca %class.statistics, align 8
  call void @llvm.lifetime.start.p0(i64 16, ptr nonnull %3) #22
  call void @llvm.memset.p0.i64(ptr noundef nonnull align 8 dereferenceable(16) %3, i8 0, i64 16, i1 false)
  invoke void @_ZNK3smt7context18collect_statisticsER10statistics(ptr noundef nonnull align 8 dereferenceable(10544) %0, ptr noundef nonnull align 8 dereferenceable(16) %3)
          to label %4 unwind label %20

4:                                                ; preds = %2
  %5 = invoke noundef nonnull align 8 dereferenceable(8) ptr @_ZNK10statistics7displayERSo(ptr noundef nonnull align 8 dereferenceable(16) %3, ptr noundef nonnull align 8 dereferenceable(8) %1)
          to label %6 unwind label %20

6:                                                ; preds = %4
  %7 = getelementptr inbounds nuw i8, ptr %3, i64 8
  %8 = load ptr, ptr %7, align 8, !tbaa !663
  %.not.i.i.i = icmp eq ptr %8, null
  br i1 %.not.i.i.i, label %_ZN6vectorISt4pairIPKcdELb0EjED2Ev.exit.i, label %9

9:                                                ; preds = %6
  %10 = getelementptr inbounds i8, ptr %8, i64 -8
  invoke void @_ZN6memory10deallocateEPv(ptr noundef nonnull %10)
          to label %_ZN6vectorISt4pairIPKcdELb0EjED2Ev.exit.i unwind label %11

11:                                               ; preds = %9
  %12 = landingpad { ptr, i32 }
          catch ptr null
  %13 = extractvalue { ptr, i32 } %12, 0
  call void @__clang_call_terminate(ptr %13) #25
  unreachable

_ZN6vectorISt4pairIPKcdELb0EjED2Ev.exit.i:        ; preds = %9, %6
  %14 = load ptr, ptr %3, align 8, !tbaa !664
  %.not.i.i1.i = icmp eq ptr %14, null
  br i1 %.not.i.i1.i, label %_ZN10statisticsD2Ev.exit, label %15

15:                                               ; preds = %_ZN6vectorISt4pairIPKcdELb0EjED2Ev.exit.i
  %16 = getelementptr inbounds i8, ptr %14, i64 -8
  invoke void @_ZN6memory10deallocateEPv(ptr noundef nonnull %16)
          to label %_ZN10statisticsD2Ev.exit unwind label %17

17:                                               ; preds = %15
  %18 = landingpad { ptr, i32 }
          catch ptr null
  %19 = extractvalue { ptr, i32 } %18, 0
  call void @__clang_call_terminate(ptr %19) #25
  unreachable

_ZN10statisticsD2Ev.exit:                         ; preds = %_ZN6vectorISt4pairIPKcdELb0EjED2Ev.exit.i, %15
  call void @llvm.lifetime.end.p0(i64 16, ptr nonnull %3) #22
  ret void

20:                                               ; preds = %4, %2
  %21 = landingpad { ptr, i32 }
          cleanup
  call void @_ZN10statisticsD2Ev(ptr noundef nonnull align 8 dereferenceable(16) %3) #22
  call void @llvm.lifetime.end.p0(i64 16, ptr nonnull %3) #22
  resume { ptr, i32 } %21
}